Certificate:
    Data:
        Version: 3 (0x2)
        Serial Number: 1 (0x1)
        Signature Algorithm: sha256WithRSAEncryption
        Issuer: C=US, ST=New Jersey, L=Princeton, O=Princeton University, OU=PNI, CN=rtcloud.princeton.edu
        Validity
            Not Before: Jan  1 12:00:00 2019 GMT
            Not After : Jan  1 12:00:00 2024 GMT
        Subject: C=US, ST=New Jersey, L=Princeton, O=Princeton University, OU=PNI, CN=rtcloud.princeton.edu
        Subject Public Key Info:
            Public Key Algorithm: rsaEncryption
                RSA Public-Key: (2048 bit)
                Modulus:
                    00:e4:d6:cb:1c:28:37:4d:1a:b6:88:16:58:a7:32:
                    97:95:4e:0e:38:89:f6:e1:fb:43:e6:20:e9:59:d3:
                    df:b6:af:0d:f8:70:2e:88:b2:f5:84:d3:34:fb:cd:
                    c0:7f:8b:6d:99:f5:f2:fb:09:fb:a0:75:14:33:ea:
                    23:db:35:25:2a:4a:e7:0e:b9:4a:d0:3f:77:c3:43:
                    3f:e7:ef:a2:5a:53:d8:e8:bc:c6:ed:02:76:4a:77:
                    d5:a9:d6:0c:49:83:85:72:c1:ab:34:a5:1d:96:7d:
                    7e:c2:91:c3:fe:a1:63:1f:3b:ae:2a:e3:15:6e:c9:
                    d3:e5:83:e2:ec:9d:12:de:09:3b:c3:59:28:36:da:
                    0d:8a:ff:a8:ff:99:bc:69:8d:c3:1c:fa:08:1f:dd:
                    40:36:3f:3f:2f:bc:e4:21:bc:3f:df:25:a6:b7:0f:
                    df:96:ad:79:c0:87:62:02:7f:3c:c3:a4:6a:74:9b:
                    04:09:ea:13:37:7e:ca:18:75:14:02:c8:47:b3:af:
                    fa:56:12:d9:93:81:0e:4f:29:05:d2:41:6f:59:0e:
                    64:a9:6f:d8:9e:d1:bc:13:80:ab:15:4d:86:49:f6:
                    d0:3d:8b:aa:c6:86:e2:8d:d9:8e:1a:3a:d0:95:b9:
                    69:5c:5d:a5:2e:b8:c6:13:a5:5a:7e:f9:2d:76:38:
                    f9:bd
                Exponent: 65537 (0x10001)
        X509v3 extensions:
            X509v3 Subject Alternative Name: 
                DNS:princeton.edu, DNS:localhost, DNS:localhost, IP Address:172.29.189.151
    Signature Algorithm: sha256WithRSAEncryption
         d1:07:86:af:d1:68:eb:84:3c:1e:0d:09:30:f4:66:5d:86:84:
         f3:ac:32:ce:73:0c:7c:4f:3f:d0:71:1e:7c:80:30:a8:51:13:
         e6:c2:a3:f0:cd:50:af:a7:e5:ce:b7:82:9c:89:c6:6a:2b:14:
         de:4c:57:c2:21:13:16:a5:60:4a:9b:47:86:62:da:4c:4e:e4:
         60:0e:cc:24:fc:c8:c6:ed:82:b6:8d:3e:2d:8c:f9:c2:1c:3b:
         ff:a9:49:40:68:a8:c7:b4:95:95:25:81:bc:ef:8e:ea:85:08:
         d6:6e:1d:69:ee:30:20:9a:8c:01:f6:76:69:d6:0c:3f:08:ed:
         12:04:d2:df:f3:8b:6f:5b:e0:5d:70:e5:66:6a:c2:b6:3e:6d:
         53:52:ad:4a:b8:2b:a4:90:bf:a1:4e:27:3a:46:e7:9d:34:55:
         3e:72:0a:4b:ac:99:d7:58:1d:0a:47:02:f2:5e:ef:86:b0:49:
         4a:11:a9:42:ee:46:6b:bd:73:f1:c8:2d:7d:7b:62:ab:5d:78:
         1e:17:85:ee:c7:eb:7e:41:83:67:c9:82:de:95:2d:28:91:21:
         e5:ff:7b:aa:36:d7:e3:36:4e:b0:1d:65:0d:99:fe:d8:15:d3:
         88:30:a9:59:c2:06:af:fb:ee:b7:04:f2:54:aa:4b:c0:6b:41:
         5e:14:83:e1
-----BEGIN CERTIFICATE-----
MIIDuzCCAqOgAwIBAgIBATANBgkqhkiG9w0BAQsFADCBgzELMAkGA1UEBhMCVVMx
EzARBgNVBAgMCk5ldyBKZXJzZXkxEjAQBgNVBAcMCVByaW5jZXRvbjEdMBsGA1UE
CgwUUHJpbmNldG9uIFVuaXZlcnNpdHkxDDAKBgNVBAsMA1BOSTEeMBwGA1UEAwwV
cnRjbG91ZC5wcmluY2V0b24uZWR1MB4XDTE5MDEwMTEyMDAwMFoXDTI0MDEwMTEy
MDAwMFowgYMxCzAJBgNVBAYTAlVTMRMwEQYDVQQIDApOZXcgSmVyc2V5MRIwEAYD
VQQHDAlQcmluY2V0b24xHTAbBgNVBAoMFFByaW5jZXRvbiBVbml2ZXJzaXR5MQww
CgYDVQQLDANQTkkxHjAcBgNVBAMMFXJ0Y2xvdWQucHJpbmNldG9uLmVkdTCCASIw
DQYJKoZIhvcNAQEBBQADggEPADCCAQoCggEBAOTWyxwoN00atogWWKcyl5VODjiJ
9uH7Q+Yg6VnT37avDfhwLoiy9YTTNPvNwH+LbZn18vsJ+6B1FDPqI9s1JSpK5w65
StA/d8NDP+fvolpT2Oi8xu0Cdkp31anWDEmDhXLBqzSlHZZ9fsKRw/6hYx87rirj
FW7J0+WD4uydEt4JO8NZKDbaDYr/qP+ZvGmNwxz6CB/dQDY/Py+85CG8P98lprcP
35atecCHYgJ/PMOkanSbBAnqEzd+yhh1FALIR7Ov+lYS2ZOBDk8pBdJBb1kOZKlv
2J7RvBOAqxVNhkn20D2LqsaG4o3Zjho60JW5aVxdpS64xhOlWn75LXY4+b0CAwEA
AaM4MDYwNAYDVR0RBC0wK4INcHJpbmNldG9uLmVkdYIJbG9jYWxob3N0gglsb2Nh
bGhvc3SHBKwdvZcwDQYJKoZIhvcNAQELBQADggEBANEHhq/RaOuEPB4NCTD0Zl2G
hPOsMs5zDHxPP9BxHnyAMKhRE+bCo/DNUK+n5c63gpyJxmorFN5MV8IhExalYEqb
R4Zi2kxO5GAOzCT8yMbtgraNPi2M+cIcO/+pSUBoqMe0lZUlgbzvjuqFCNZuHWnu
MCCajAH2dmnWDD8I7RIE0t/zi29b4F1w5WZqwrY+bVNSrUq4K6SQv6FOJzpG5500
VT5yCkusmddYHQpHAvJe74awSUoRqULuRmu9c/HILX17YqtdeB4Xhe7H635Bg2fJ
gt6VLSiRIeX/e6o21+M2TrAdZQ2Z/tgV04gwqVnCBq/77rcE8lSqS8BrQV4Ug+E=
-----END CERTIFICATE-----
