Certificate:
    Data:
        Version: 3 (0x2)
        Serial Number: 1 (0x1)
        Signature Algorithm: sha256WithRSAEncryption
        Issuer: C=US, ST=New Jersey, L=Princeton, O=Princeton University, OU=PNI, CN=rtcloud.princeton.edu
        Validity
            Not Before: Jan  1 12:00:00 2019 GMT
            Not After : Jan  1 12:00:00 2024 GMT
        Subject: C=US, ST=New Jersey, L=Princeton, O=Princeton University, OU=PNI, CN=rtcloud.princeton.edu
        Subject Public Key Info:
            Public Key Algorithm: rsaEncryption
                RSA Public-Key: (2048 bit)
                Modulus:
                    00:c4:56:42:32:16:4e:e2:81:db:91:5c:af:f1:21:
                    52:58:36:40:c9:ea:ba:c5:bd:c8:29:47:f7:76:3d:
                    cf:f5:0b:52:5e:0d:3e:e8:6a:cd:b5:df:ea:9d:b4:
                    a0:1b:88:48:71:6d:72:fd:0a:d2:23:26:4a:e7:90:
                    0e:6f:d9:45:2a:28:14:33:80:af:f9:4c:f1:56:68:
                    1d:70:ec:04:aa:e2:84:cb:c4:db:fd:aa:b4:6a:a5:
                    ad:79:09:9d:26:9d:d4:fd:a6:74:07:8d:d5:b9:ef:
                    92:9f:67:f9:8c:56:33:e6:91:60:4e:a7:4d:f2:94:
                    73:90:8a:f4:21:79:bf:0d:a5:e9:1c:a6:b5:3a:8c:
                    66:03:e9:2e:9e:04:2d:70:0e:95:30:eb:69:dd:ee:
                    20:f0:d5:38:81:8b:d5:33:5f:7e:22:a4:b9:53:a0:
                    31:49:ee:46:f7:23:4e:d1:12:81:06:81:b7:93:9b:
                    ff:70:43:d6:e6:94:69:a8:e3:c3:7e:19:20:8d:ef:
                    9e:26:e9:67:ae:aa:c0:f3:82:74:d3:73:e3:e5:bc:
                    c3:22:ba:b0:05:71:85:eb:22:42:f6:6a:ad:f1:19:
                    14:38:6d:c0:f0:4c:ef:12:f2:c9:1c:2d:77:f1:30:
                    ff:0d:4a:b8:55:c8:a0:0d:4a:b7:93:6a:a9:ba:86:
                    62:2b
                Exponent: 65537 (0x10001)
        X509v3 extensions:
            X509v3 Subject Alternative Name: 
                DNS:princeton.edu, DNS:localhost, DNS:localhost, IP Address:172.29.189.22
    Signature Algorithm: sha256WithRSAEncryption
         4a:03:ce:11:15:05:6a:d4:92:b8:9b:e2:54:64:4a:3f:b2:f4:
         77:96:ac:9b:10:86:b1:a9:13:a5:f4:d5:7c:ea:a4:2c:dc:03:
         ce:f9:5f:3a:fc:07:9c:46:ac:d1:51:f3:9b:65:f9:87:2c:59:
         6b:1a:e7:f5:86:b0:f8:3d:1f:5e:23:f7:5f:ab:dd:72:54:e5:
         5f:12:90:ad:ab:d7:28:15:98:25:ea:7a:59:8d:e6:f4:54:e7:
         55:4e:17:c9:a8:3f:36:b9:5d:9e:32:45:f7:cf:3c:89:d3:3d:
         a8:51:6d:19:ba:0e:87:2f:67:d1:97:b8:90:cc:16:6d:cc:ae:
         69:57:11:31:63:d5:b5:f6:9b:2b:c0:88:53:d1:b9:3a:72:b5:
         72:a4:fb:92:12:73:11:c3:01:db:6d:29:9e:f7:83:01:7d:62:
         b0:5b:c2:00:3d:dc:4a:6c:52:4e:cc:59:68:3b:49:f6:75:fd:
         06:48:8f:9c:c1:ff:c5:d8:7e:9a:cc:ed:c9:a0:45:d3:be:6b:
         7c:b3:0b:1b:0f:2f:79:ab:ab:f8:79:70:79:cf:21:c2:29:9c:
         78:63:76:56:66:64:3a:3c:3d:a1:53:b9:9f:d9:07:56:75:a1:
         fe:81:97:83:bf:b2:38:a2:e5:f5:82:e7:56:e5:73:2b:45:49:
         c4:d1:f9:51
-----BEGIN CERTIFICATE-----
MIIDuzCCAqOgAwIBAgIBATANBgkqhkiG9w0BAQsFADCBgzELMAkGA1UEBhMCVVMx
EzARBgNVBAgMCk5ldyBKZXJzZXkxEjAQBgNVBAcMCVByaW5jZXRvbjEdMBsGA1UE
CgwUUHJpbmNldG9uIFVuaXZlcnNpdHkxDDAKBgNVBAsMA1BOSTEeMBwGA1UEAwwV
cnRjbG91ZC5wcmluY2V0b24uZWR1MB4XDTE5MDEwMTEyMDAwMFoXDTI0MDEwMTEy
MDAwMFowgYMxCzAJBgNVBAYTAlVTMRMwEQYDVQQIDApOZXcgSmVyc2V5MRIwEAYD
VQQHDAlQcmluY2V0b24xHTAbBgNVBAoMFFByaW5jZXRvbiBVbml2ZXJzaXR5MQww
CgYDVQQLDANQTkkxHjAcBgNVBAMMFXJ0Y2xvdWQucHJpbmNldG9uLmVkdTCCASIw
DQYJKoZIhvcNAQEBBQADggEPADCCAQoCggEBAMRWQjIWTuKB25Fcr/EhUlg2QMnq
usW9yClH93Y9z/ULUl4NPuhqzbXf6p20oBuISHFtcv0K0iMmSueQDm/ZRSooFDOA
r/lM8VZoHXDsBKrihMvE2/2qtGqlrXkJnSad1P2mdAeN1bnvkp9n+YxWM+aRYE6n
TfKUc5CK9CF5vw2l6RymtTqMZgPpLp4ELXAOlTDrad3uIPDVOIGL1TNffiKkuVOg
MUnuRvcjTtESgQaBt5Ob/3BD1uaUaajjw34ZII3vnibpZ66qwPOCdNNz4+W8wyK6
sAVxhesiQvZqrfEZFDhtwPBM7xLyyRwtd/Ew/w1KuFXIoA1Kt5NqqbqGYisCAwEA
AaM4MDYwNAYDVR0RBC0wK4INcHJpbmNldG9uLmVkdYIJbG9jYWxob3N0gglsb2Nh
bGhvc3SHBKwdvRYwDQYJKoZIhvcNAQELBQADggEBAEoDzhEVBWrUkrib4lRkSj+y
9HeWrJsQhrGpE6X01XzqpCzcA875Xzr8B5xGrNFR85tl+YcsWWsa5/WGsPg9H14j
91+r3XJU5V8SkK2r1ygVmCXqelmN5vRU51VOF8moPza5XZ4yRffPPInTPahRbRm6
DocvZ9GXuJDMFm3MrmlXETFj1bX2myvAiFPRuTpytXKk+5IScxHDAdttKZ73gwF9
YrBbwgA93EpsUk7MWWg7SfZ1/QZIj5zB/8XYfprM7cmgRdO+a3yzCxsPL3mrq/h5
cHnPIcIpnHhjdlZmZDo8PaFTuZ/ZB1Z1of6Bl4O/sjii5fWC51blcytFScTR+VE=
-----END CERTIFICATE-----
