Certificate:
    Data:
        Version: 3 (0x2)
        Serial Number: 1 (0x1)
        Signature Algorithm: sha256WithRSAEncryption
        Issuer: C=US, ST=New Jersey, L=Princeton, O=Princeton University, OU=PNI, CN=rtcloud.princeton.edu
        Validity
            Not Before: Jan  1 12:00:00 2019 GMT
            Not After : Jan  1 12:00:00 2024 GMT
        Subject: C=US, ST=New Jersey, L=Princeton, O=Princeton University, OU=PNI, CN=rtcloud.princeton.edu
        Subject Public Key Info:
            Public Key Algorithm: rsaEncryption
                RSA Public-Key: (2048 bit)
                Modulus:
                    00:c6:3e:e7:84:00:c9:ac:fd:54:f6:87:3e:81:5a:
                    0d:52:fb:c6:56:e0:1e:94:da:f0:bd:65:34:e9:29:
                    b4:33:b0:04:2a:e5:ae:4e:f9:0e:74:30:0b:14:75:
                    c0:5d:f6:f4:31:d1:03:b0:32:43:8c:d2:3c:c1:a9:
                    be:73:d5:58:29:a1:bd:18:5c:c0:60:a8:07:da:51:
                    13:e8:f5:f7:e5:e0:84:8f:54:1b:a7:e3:c1:98:1f:
                    05:fd:57:99:67:38:18:bc:0b:85:1f:b7:be:ba:97:
                    c4:23:44:4f:69:7d:bf:49:49:a0:c5:06:4a:8b:6c:
                    7d:7c:5b:fb:ae:ea:5c:2a:06:0a:90:bb:82:0f:2e:
                    fc:b7:a7:ff:42:f2:27:f5:64:ab:3c:23:aa:df:ec:
                    2b:e2:43:b3:4d:7a:0c:22:3c:bd:ca:81:8b:bb:04:
                    d7:29:e2:f0:ac:eb:6a:e2:fe:cf:14:e9:d6:b6:d4:
                    5b:a5:96:f7:50:88:c8:2a:87:c3:e6:40:e3:c0:98:
                    6d:4f:42:65:1c:32:3c:61:42:7e:43:69:02:b4:5f:
                    57:7e:ac:84:23:c5:1f:b2:89:6a:da:27:8f:f8:5d:
                    92:3d:ae:17:f8:43:be:47:56:d8:31:2f:7f:ed:2e:
                    54:c0:15:c1:f3:3d:5f:37:05:14:e7:90:3c:47:c0:
                    dd:23
                Exponent: 65537 (0x10001)
        X509v3 extensions:
            X509v3 Subject Alternative Name: 
                DNS:princeton.edu, DNS:localhost, DNS:localhost, IP Address:172.29.189.151, IP Address:172.29.189.152, IP Address:172.29.189.22, IP Address:172.29.189.23
    Signature Algorithm: sha256WithRSAEncryption
         b0:04:cd:65:fd:63:20:2e:b7:15:6b:a4:4e:2c:7a:32:38:e0:
         f0:eb:32:c1:c8:7b:ab:c8:11:e3:95:1b:fe:75:ad:5c:cf:1a:
         11:b5:b9:23:04:93:8f:11:66:55:38:ad:05:bf:c8:ad:c9:ab:
         68:d4:a3:f5:ae:9f:e1:6f:2f:52:e6:d3:2b:41:7f:20:b3:f8:
         2f:01:66:97:dc:8d:07:08:4c:f8:94:2d:a7:5a:f5:b2:3c:77:
         06:10:d1:6b:ab:1a:05:fe:52:37:64:5e:ed:bf:83:74:90:41:
         32:72:c5:6f:b0:2a:af:e2:ce:62:f0:39:12:e4:1a:50:a1:f5:
         c7:18:7f:09:f6:ba:67:d9:2c:ee:14:60:aa:7c:ab:13:9e:90:
         fa:ed:79:e6:2d:c9:bb:40:38:57:d5:0e:06:fd:59:28:8f:37:
         55:9e:ba:6d:bf:3d:3a:7d:ae:27:70:ea:19:3d:21:b8:4c:3a:
         47:be:8d:3e:d3:b8:2e:ae:31:1c:e7:07:d8:10:ce:bd:9f:bb:
         db:5b:f8:cb:62:c2:8f:3f:0a:e3:45:1a:26:71:36:f5:20:b1:
         3b:8a:a7:28:8e:ef:62:ff:85:64:4b:47:3f:88:41:60:ed:cd:
         7d:16:70:97:ca:01:b9:1d:a4:b6:db:cd:f5:22:d2:fe:74:62:
         21:d7:65:c5
-----BEGIN CERTIFICATE-----
MIIDzTCCArWgAwIBAgIBATANBgkqhkiG9w0BAQsFADCBgzELMAkGA1UEBhMCVVMx
EzARBgNVBAgMCk5ldyBKZXJzZXkxEjAQBgNVBAcMCVByaW5jZXRvbjEdMBsGA1UE
CgwUUHJpbmNldG9uIFVuaXZlcnNpdHkxDDAKBgNVBAsMA1BOSTEeMBwGA1UEAwwV
cnRjbG91ZC5wcmluY2V0b24uZWR1MB4XDTE5MDEwMTEyMDAwMFoXDTI0MDEwMTEy
MDAwMFowgYMxCzAJBgNVBAYTAlVTMRMwEQYDVQQIDApOZXcgSmVyc2V5MRIwEAYD
VQQHDAlQcmluY2V0b24xHTAbBgNVBAoMFFByaW5jZXRvbiBVbml2ZXJzaXR5MQww
CgYDVQQLDANQTkkxHjAcBgNVBAMMFXJ0Y2xvdWQucHJpbmNldG9uLmVkdTCCASIw
DQYJKoZIhvcNAQEBBQADggEPADCCAQoCggEBAMY+54QAyaz9VPaHPoFaDVL7xlbg
HpTa8L1lNOkptDOwBCrlrk75DnQwCxR1wF329DHRA7AyQ4zSPMGpvnPVWCmhvRhc
wGCoB9pRE+j19+XghI9UG6fjwZgfBf1XmWc4GLwLhR+3vrqXxCNET2l9v0lJoMUG
SotsfXxb+67qXCoGCpC7gg8u/Len/0LyJ/Vkqzwjqt/sK+JDs016DCI8vcqBi7sE
1yni8KzrauL+zxTp1rbUW6WW91CIyCqHw+ZA48CYbU9CZRwyPGFCfkNpArRfV36s
hCPFH7KJatonj/hdkj2uF/hDvkdW2DEvf+0uVMAVwfM9XzcFFOeQPEfA3SMCAwEA
AaNKMEgwRgYDVR0RBD8wPYINcHJpbmNldG9uLmVkdYIJbG9jYWxob3N0gglsb2Nh
bGhvc3SHBKwdvZeHBKwdvZiHBKwdvRaHBKwdvRcwDQYJKoZIhvcNAQELBQADggEB
ALAEzWX9YyAutxVrpE4sejI44PDrMsHIe6vIEeOVG/51rVzPGhG1uSMEk48RZlU4
rQW/yK3Jq2jUo/Wun+FvL1Lm0ytBfyCz+C8BZpfcjQcITPiULada9bI8dwYQ0Wur
GgX+UjdkXu2/g3SQQTJyxW+wKq/izmLwORLkGlCh9ccYfwn2umfZLO4UYKp8qxOe
kPrteeYtybtAOFfVDgb9WSiPN1Weum2/PTp9ridw6hk9IbhMOke+jT7TuC6uMRzn
B9gQzr2fu9tb+Mtiwo8/CuNFGiZxNvUgsTuKpyiO72L/hWRLRz+IQWDtzX0WcJfK
AbkdpLbbzfUi0v50YiHXZcU=
-----END CERTIFICATE-----
