Certificate:
    Data:
        Version: 3 (0x2)
        Serial Number: 1 (0x1)
        Signature Algorithm: sha256WithRSAEncryption
        Issuer: C=US, ST=New Jersey, L=Princeton, O=Princeton University, OU=PNI, CN=rtcloud.princeton.edu
        Validity
            Not Before: Jan  1 12:00:00 2019 GMT
            Not After : Jan  1 12:00:00 2024 GMT
        Subject: C=US, ST=New Jersey, L=Princeton, O=Princeton University, OU=PNI, CN=rtcloud.princeton.edu
        Subject Public Key Info:
            Public Key Algorithm: rsaEncryption
                RSA Public-Key: (2048 bit)
                Modulus:
                    00:f7:a7:19:61:74:b2:8a:71:aa:0b:f2:dd:c5:31:
                    8b:1f:a9:dd:90:04:1a:1d:8d:86:6b:41:96:c0:27:
                    3c:33:34:f2:75:96:9e:76:48:35:69:05:0d:8f:83:
                    43:3a:19:30:e6:98:30:a8:ed:62:94:51:bf:37:fa:
                    fe:df:e8:dd:5d:8e:b5:6a:8a:6e:d3:ac:e7:b1:f0:
                    1c:44:9d:02:fd:c1:68:cb:a6:27:0b:53:03:18:82:
                    f7:fc:79:db:17:8f:cc:68:49:8d:d5:29:dc:3b:9f:
                    19:36:c4:cd:02:1a:de:70:33:2e:eb:2e:da:79:8b:
                    60:d8:4b:3e:94:2a:e6:f6:dc:84:78:53:3b:fb:ba:
                    d2:7a:88:5a:01:d2:62:e7:db:bc:8d:cf:e9:6d:34:
                    80:f9:f3:fd:61:d3:09:4b:79:bb:5c:fc:d7:b6:9c:
                    17:ed:cf:c4:9d:7f:db:d0:7a:08:1d:00:fb:56:43:
                    d3:f1:30:b1:e3:06:f3:94:40:85:35:3a:f0:c1:f1:
                    64:f0:28:ca:dc:6c:e0:2b:91:58:d8:25:28:dc:54:
                    cf:e6:cc:4c:5d:4e:b4:1c:f8:07:66:37:05:9b:a7:
                    37:6f:b9:c0:c6:11:db:a3:dc:a0:c4:9f:fe:f8:11:
                    84:d8:92:da:c8:be:8d:bf:2e:89:9c:4a:59:c1:56:
                    00:c7
                Exponent: 65537 (0x10001)
        X509v3 extensions:
            X509v3 Subject Alternative Name: 
                DNS:princeton.edu, DNS:localhost, DNS:localhost, IP Address:172.29.189.151
    Signature Algorithm: sha256WithRSAEncryption
         d9:b1:8f:c6:ec:27:3a:7d:cd:20:61:fc:cf:eb:20:d0:76:66:
         9b:66:d5:23:6d:0d:59:f9:00:c3:17:57:90:b1:aa:b3:e8:c7:
         e4:09:28:1a:0e:ff:04:60:b5:a7:a9:22:1e:1a:93:e0:92:76:
         79:5e:50:66:ff:a6:f8:2a:f4:18:12:53:24:25:37:22:31:7f:
         2d:c3:0d:c1:a2:84:2c:96:82:ef:4c:87:54:ce:63:9a:c8:c1:
         0c:18:89:dd:26:40:17:86:20:99:5c:c2:7f:10:80:e4:f1:7d:
         5a:24:69:29:a6:5f:91:f8:b0:c5:0e:ea:e6:bb:84:f3:71:23:
         b6:79:77:7c:3d:ab:79:97:bc:01:3e:67:06:8c:df:ba:35:64:
         8a:a7:4c:71:c9:12:79:25:ee:2e:49:1e:f4:96:36:3f:77:db:
         d0:cd:95:2b:b5:c2:3d:78:42:d3:24:fb:76:9b:f4:3f:91:5c:
         3a:4f:0f:35:84:fe:e4:5f:6d:4c:7b:3f:74:10:ea:66:66:7b:
         c9:ee:49:64:01:40:0d:5e:52:d3:5a:10:bf:8d:64:bd:0b:32:
         30:1f:58:10:77:57:89:13:f9:1a:a9:2c:ab:3e:4f:a8:3b:ea:
         68:f2:ad:9b:ba:f8:9f:f9:a8:75:c9:6a:12:22:6b:e9:f8:a5:
         73:be:20:95
-----BEGIN CERTIFICATE-----
MIIDuzCCAqOgAwIBAgIBATANBgkqhkiG9w0BAQsFADCBgzELMAkGA1UEBhMCVVMx
EzARBgNVBAgMCk5ldyBKZXJzZXkxEjAQBgNVBAcMCVByaW5jZXRvbjEdMBsGA1UE
CgwUUHJpbmNldG9uIFVuaXZlcnNpdHkxDDAKBgNVBAsMA1BOSTEeMBwGA1UEAwwV
cnRjbG91ZC5wcmluY2V0b24uZWR1MB4XDTE5MDEwMTEyMDAwMFoXDTI0MDEwMTEy
MDAwMFowgYMxCzAJBgNVBAYTAlVTMRMwEQYDVQQIDApOZXcgSmVyc2V5MRIwEAYD
VQQHDAlQcmluY2V0b24xHTAbBgNVBAoMFFByaW5jZXRvbiBVbml2ZXJzaXR5MQww
CgYDVQQLDANQTkkxHjAcBgNVBAMMFXJ0Y2xvdWQucHJpbmNldG9uLmVkdTCCASIw
DQYJKoZIhvcNAQEBBQADggEPADCCAQoCggEBAPenGWF0sopxqgvy3cUxix+p3ZAE
Gh2NhmtBlsAnPDM08nWWnnZINWkFDY+DQzoZMOaYMKjtYpRRvzf6/t/o3V2OtWqK
btOs57HwHESdAv3BaMumJwtTAxiC9/x52xePzGhJjdUp3DufGTbEzQIa3nAzLusu
2nmLYNhLPpQq5vbchHhTO/u60nqIWgHSYufbvI3P6W00gPnz/WHTCUt5u1z817ac
F+3PxJ1/29B6CB0A+1ZD0/EwseMG85RAhTU68MHxZPAoytxs4CuRWNglKNxUz+bM
TF1OtBz4B2Y3BZunN2+5wMYR26PcoMSf/vgRhNiS2si+jb8uiZxKWcFWAMcCAwEA
AaM4MDYwNAYDVR0RBC0wK4INcHJpbmNldG9uLmVkdYIJbG9jYWxob3N0gglsb2Nh
bGhvc3SHBKwdvZcwDQYJKoZIhvcNAQELBQADggEBANmxj8bsJzp9zSBh/M/rINB2
Zptm1SNtDVn5AMMXV5CxqrPox+QJKBoO/wRgtaepIh4ak+CSdnleUGb/pvgq9BgS
UyQlNyIxfy3DDcGihCyWgu9Mh1TOY5rIwQwYid0mQBeGIJlcwn8QgOTxfVokaSmm
X5H4sMUO6ua7hPNxI7Z5d3w9q3mXvAE+ZwaM37o1ZIqnTHHJEnkl7i5JHvSWNj93
29DNlSu1wj14QtMk+3ab9D+RXDpPDzWE/uRfbUx7P3QQ6mZme8nuSWQBQA1eUtNa
EL+NZL0LMjAfWBB3V4kT+RqpLKs+T6g76mjyrZu6+J/5qHXJahIia+n4pXO+IJU=
-----END CERTIFICATE-----
