Certificate:
    Data:
        Version: 3 (0x2)
        Serial Number: 1 (0x1)
        Signature Algorithm: sha256WithRSAEncryption
        Issuer: C=US, ST=New Jersey, L=Princeton, O=Princeton University, OU=PNI, CN=rtcloud.princeton.edu
        Validity
            Not Before: Jan  1 12:00:00 2019 GMT
            Not After : Jan  1 12:00:00 2024 GMT
        Subject: C=US, ST=New Jersey, L=Princeton, O=Princeton University, OU=PNI, CN=rtcloud.princeton.edu
        Subject Public Key Info:
            Public Key Algorithm: rsaEncryption
                RSA Public-Key: (2048 bit)
                Modulus:
                    00:c4:56:42:32:16:4e:e2:81:db:91:5c:af:f1:21:
                    52:58:36:40:c9:ea:ba:c5:bd:c8:29:47:f7:76:3d:
                    cf:f5:0b:52:5e:0d:3e:e8:6a:cd:b5:df:ea:9d:b4:
                    a0:1b:88:48:71:6d:72:fd:0a:d2:23:26:4a:e7:90:
                    0e:6f:d9:45:2a:28:14:33:80:af:f9:4c:f1:56:68:
                    1d:70:ec:04:aa:e2:84:cb:c4:db:fd:aa:b4:6a:a5:
                    ad:79:09:9d:26:9d:d4:fd:a6:74:07:8d:d5:b9:ef:
                    92:9f:67:f9:8c:56:33:e6:91:60:4e:a7:4d:f2:94:
                    73:90:8a:f4:21:79:bf:0d:a5:e9:1c:a6:b5:3a:8c:
                    66:03:e9:2e:9e:04:2d:70:0e:95:30:eb:69:dd:ee:
                    20:f0:d5:38:81:8b:d5:33:5f:7e:22:a4:b9:53:a0:
                    31:49:ee:46:f7:23:4e:d1:12:81:06:81:b7:93:9b:
                    ff:70:43:d6:e6:94:69:a8:e3:c3:7e:19:20:8d:ef:
                    9e:26:e9:67:ae:aa:c0:f3:82:74:d3:73:e3:e5:bc:
                    c3:22:ba:b0:05:71:85:eb:22:42:f6:6a:ad:f1:19:
                    14:38:6d:c0:f0:4c:ef:12:f2:c9:1c:2d:77:f1:30:
                    ff:0d:4a:b8:55:c8:a0:0d:4a:b7:93:6a:a9:ba:86:
                    62:2b
                Exponent: 65537 (0x10001)
        X509v3 extensions:
            X509v3 Subject Alternative Name: 
                DNS:princeton.edu, DNS:localhost, DNS:localhost, IP Address:172.29.189.152
    Signature Algorithm: sha256WithRSAEncryption
         17:96:f6:42:2a:82:8a:f3:b0:63:9a:f0:77:b1:05:3e:cd:e9:
         95:ae:31:28:c4:c9:97:e5:5c:b6:7e:72:65:a6:3b:47:3f:eb:
         9f:34:e7:31:e9:d8:16:95:04:e8:a6:bd:98:0a:3e:3d:04:a3:
         4d:56:5a:c5:f8:7d:9a:62:12:e0:4b:a2:b7:a3:18:3c:d3:ff:
         9e:cd:8b:7e:6d:d8:c9:d3:75:ca:0f:a8:7e:a2:ef:de:72:0f:
         e3:87:1b:e9:6c:5b:07:3a:da:4c:c6:07:b3:72:7f:05:bb:e4:
         05:61:75:f1:c3:30:a3:bb:d3:de:cd:e7:33:43:62:71:26:81:
         71:6c:8f:0c:75:47:1e:50:ab:58:07:79:8d:18:2e:6d:ec:42:
         91:46:b2:d5:1d:fc:ec:b1:cf:05:a1:73:42:f1:19:31:b9:f5:
         f6:e9:88:68:09:fa:02:92:ed:33:66:13:3c:55:af:e8:e0:69:
         32:0a:8b:c5:da:36:87:cf:65:c5:23:bc:d8:67:06:56:fd:bc:
         c1:fe:12:60:6d:24:58:50:fc:20:a0:14:06:bc:53:db:12:f0:
         12:3d:58:20:7f:8f:b5:e8:65:36:84:31:38:b0:a0:cd:cc:87:
         c5:8a:5c:75:97:05:d2:c2:e8:e5:7f:ee:e7:5f:a3:ec:3f:58:
         7d:4a:75:4b
-----BEGIN CERTIFICATE-----
MIIDuzCCAqOgAwIBAgIBATANBgkqhkiG9w0BAQsFADCBgzELMAkGA1UEBhMCVVMx
EzARBgNVBAgMCk5ldyBKZXJzZXkxEjAQBgNVBAcMCVByaW5jZXRvbjEdMBsGA1UE
CgwUUHJpbmNldG9uIFVuaXZlcnNpdHkxDDAKBgNVBAsMA1BOSTEeMBwGA1UEAwwV
cnRjbG91ZC5wcmluY2V0b24uZWR1MB4XDTE5MDEwMTEyMDAwMFoXDTI0MDEwMTEy
MDAwMFowgYMxCzAJBgNVBAYTAlVTMRMwEQYDVQQIDApOZXcgSmVyc2V5MRIwEAYD
VQQHDAlQcmluY2V0b24xHTAbBgNVBAoMFFByaW5jZXRvbiBVbml2ZXJzaXR5MQww
CgYDVQQLDANQTkkxHjAcBgNVBAMMFXJ0Y2xvdWQucHJpbmNldG9uLmVkdTCCASIw
DQYJKoZIhvcNAQEBBQADggEPADCCAQoCggEBAMRWQjIWTuKB25Fcr/EhUlg2QMnq
usW9yClH93Y9z/ULUl4NPuhqzbXf6p20oBuISHFtcv0K0iMmSueQDm/ZRSooFDOA
r/lM8VZoHXDsBKrihMvE2/2qtGqlrXkJnSad1P2mdAeN1bnvkp9n+YxWM+aRYE6n
TfKUc5CK9CF5vw2l6RymtTqMZgPpLp4ELXAOlTDrad3uIPDVOIGL1TNffiKkuVOg
MUnuRvcjTtESgQaBt5Ob/3BD1uaUaajjw34ZII3vnibpZ66qwPOCdNNz4+W8wyK6
sAVxhesiQvZqrfEZFDhtwPBM7xLyyRwtd/Ew/w1KuFXIoA1Kt5NqqbqGYisCAwEA
AaM4MDYwNAYDVR0RBC0wK4INcHJpbmNldG9uLmVkdYIJbG9jYWxob3N0gglsb2Nh
bGhvc3SHBKwdvZgwDQYJKoZIhvcNAQELBQADggEBABeW9kIqgorzsGOa8HexBT7N
6ZWuMSjEyZflXLZ+cmWmO0c/65805zHp2BaVBOimvZgKPj0Eo01WWsX4fZpiEuBL
orejGDzT/57Ni35t2MnTdcoPqH6i795yD+OHG+lsWwc62kzGB7NyfwW75AVhdfHD
MKO7097N5zNDYnEmgXFsjwx1Rx5Qq1gHeY0YLm3sQpFGstUd/OyxzwWhc0LxGTG5
9fbpiGgJ+gKS7TNmEzxVr+jgaTIKi8XaNofPZcUjvNhnBlb9vMH+EmBtJFhQ/CCg
FAa8U9sS8BI9WCB/j7XoZTaEMTiwoM3Mh8WKXHWXBdLC6OV/7udfo+w/WH1KdUs=
-----END CERTIFICATE-----
