Certificate:
    Data:
        Version: 3 (0x2)
        Serial Number: 1 (0x1)
        Signature Algorithm: sha256WithRSAEncryption
        Issuer: C=US, ST=New Jersey, L=Princeton, O=Princeton University, OU=PNI, CN=rtcloud.princeton.edu
        Validity
            Not Before: Jan  1 12:00:00 2019 GMT
            Not After : Jan  1 12:00:00 2024 GMT
        Subject: C=US, ST=New Jersey, L=Princeton, O=Princeton University, OU=PNI, CN=rtcloud.princeton.edu
        Subject Public Key Info:
            Public Key Algorithm: rsaEncryption
                RSA Public-Key: (2048 bit)
                Modulus:
                    00:cb:5a:de:96:98:4d:aa:18:c4:6b:53:2f:51:26:
                    95:96:80:42:d7:83:56:e6:53:5f:58:b7:64:c3:1d:
                    17:37:a1:15:61:a5:e3:3f:1f:3c:92:8e:8b:52:9a:
                    0b:ba:57:a1:1f:7c:89:75:2f:c8:21:58:8e:76:8f:
                    e6:8a:d9:a5:56:e8:d1:1d:cb:12:b4:82:f1:04:29:
                    39:97:73:18:75:fe:2d:23:41:cb:0c:32:55:1d:80:
                    f6:d4:eb:38:f8:47:e4:2c:d7:7c:57:21:95:95:c1:
                    ed:1f:0c:a7:58:55:a5:0b:c1:61:f6:2f:1a:71:e7:
                    e3:95:2b:9d:10:5a:eb:d9:15:29:a3:ef:62:85:f0:
                    3b:d0:94:13:9b:66:14:e0:45:4d:99:8c:2a:7c:53:
                    c9:6c:9e:35:87:8a:36:db:0e:c2:39:f6:0f:8b:af:
                    ba:3a:16:b6:67:c6:d5:f3:13:b2:b8:5e:62:3c:6c:
                    9e:3f:3c:48:c0:08:da:01:96:dc:78:4e:14:57:a9:
                    61:3c:ce:1c:2e:59:2d:89:36:a7:3b:3a:4d:1e:db:
                    ec:8a:ca:24:49:cc:68:81:b3:e9:d5:cd:52:b7:d4:
                    00:21:26:0e:38:5c:00:2f:8c:f4:4c:14:a4:24:af:
                    79:95:1f:1b:50:b3:f5:f0:d3:84:07:61:b3:01:8e:
                    57:83
                Exponent: 65537 (0x10001)
        X509v3 extensions:
            X509v3 Subject Alternative Name: 
                DNS:princeton.edu, DNS:localhost, DNS:localhost, IP Address:172.29.189.151
    Signature Algorithm: sha256WithRSAEncryption
         af:c5:5c:90:e2:db:93:88:f2:e5:30:24:ca:31:a2:39:d9:d3:
         f9:e7:36:76:83:0a:84:c7:33:f8:f5:a9:48:7f:67:58:45:64:
         bf:57:10:02:aa:e9:a0:d8:c3:8c:6c:7f:75:06:eb:d6:37:35:
         21:53:db:c9:85:2a:56:e8:a9:c0:54:e2:f4:b2:3e:6b:c1:7c:
         96:01:27:86:bd:88:c0:50:56:9b:20:e2:d2:95:95:01:9a:56:
         f7:db:23:6a:b0:b9:7a:8c:7f:89:19:80:ea:0f:ee:48:df:10:
         6b:58:75:d2:b1:6e:36:00:d3:44:8f:92:b0:34:34:ce:f0:f9:
         69:17:ce:90:6e:54:40:1c:8b:1e:b4:83:0a:07:52:2a:f1:11:
         cf:6d:02:06:2b:05:13:54:a3:e1:ac:fb:aa:a7:49:12:c7:2a:
         6b:19:70:e2:26:ff:c2:d7:ed:c1:af:6d:4b:5d:6a:6e:95:2f:
         08:fc:23:60:56:37:37:db:50:c9:73:e1:26:8d:1f:68:3b:19:
         89:ac:2f:a8:51:5e:5a:19:49:0a:7b:8a:c7:12:93:18:eb:0c:
         a2:cd:d1:87:cd:a4:0b:55:4e:c3:18:dd:4b:2d:9c:c0:65:30:
         5c:75:86:b2:0a:80:76:96:2e:3c:44:7d:4c:7c:16:dd:57:ba:
         e2:d2:cd:fc
-----BEGIN CERTIFICATE-----
MIIDuzCCAqOgAwIBAgIBATANBgkqhkiG9w0BAQsFADCBgzELMAkGA1UEBhMCVVMx
EzARBgNVBAgMCk5ldyBKZXJzZXkxEjAQBgNVBAcMCVByaW5jZXRvbjEdMBsGA1UE
CgwUUHJpbmNldG9uIFVuaXZlcnNpdHkxDDAKBgNVBAsMA1BOSTEeMBwGA1UEAwwV
cnRjbG91ZC5wcmluY2V0b24uZWR1MB4XDTE5MDEwMTEyMDAwMFoXDTI0MDEwMTEy
MDAwMFowgYMxCzAJBgNVBAYTAlVTMRMwEQYDVQQIDApOZXcgSmVyc2V5MRIwEAYD
VQQHDAlQcmluY2V0b24xHTAbBgNVBAoMFFByaW5jZXRvbiBVbml2ZXJzaXR5MQww
CgYDVQQLDANQTkkxHjAcBgNVBAMMFXJ0Y2xvdWQucHJpbmNldG9uLmVkdTCCASIw
DQYJKoZIhvcNAQEBBQADggEPADCCAQoCggEBAMta3paYTaoYxGtTL1EmlZaAQteD
VuZTX1i3ZMMdFzehFWGl4z8fPJKOi1KaC7pXoR98iXUvyCFYjnaP5orZpVbo0R3L
ErSC8QQpOZdzGHX+LSNBywwyVR2A9tTrOPhH5CzXfFchlZXB7R8Mp1hVpQvBYfYv
GnHn45UrnRBa69kVKaPvYoXwO9CUE5tmFOBFTZmMKnxTyWyeNYeKNtsOwjn2D4uv
ujoWtmfG1fMTsrheYjxsnj88SMAI2gGW3HhOFFepYTzOHC5ZLYk2pzs6TR7b7IrK
JEnMaIGz6dXNUrfUACEmDjhcAC+M9EwUpCSveZUfG1Cz9fDThAdhswGOV4MCAwEA
AaM4MDYwNAYDVR0RBC0wK4INcHJpbmNldG9uLmVkdYIJbG9jYWxob3N0gglsb2Nh
bGhvc3SHBKwdvZcwDQYJKoZIhvcNAQELBQADggEBAK/FXJDi25OI8uUwJMoxojnZ
0/nnNnaDCoTHM/j1qUh/Z1hFZL9XEAKq6aDYw4xsf3UG69Y3NSFT28mFKlboqcBU
4vSyPmvBfJYBJ4a9iMBQVpsg4tKVlQGaVvfbI2qwuXqMf4kZgOoP7kjfEGtYddKx
bjYA00SPkrA0NM7w+WkXzpBuVEAcix60gwoHUirxEc9tAgYrBRNUo+Gs+6qnSRLH
KmsZcOIm/8LX7cGvbUtdam6VLwj8I2BWNzfbUMlz4SaNH2g7GYmsL6hRXloZSQp7
iscSkxjrDKLN0YfNpAtVTsMY3UstnMBlMFx1hrIKgHaWLjxEfUx8Ft1XuuLSzfw=
-----END CERTIFICATE-----
