Certificate:
    Data:
        Version: 3 (0x2)
        Serial Number: 1 (0x1)
        Signature Algorithm: sha256WithRSAEncryption
        Issuer: C=US, ST=New Jersey, L=Princeton, O=Princeton University, OU=PNI, CN=rtcloud.princeton.edu
        Validity
            Not Before: Jan  1 12:00:00 2019 GMT
            Not After : Jan  1 12:00:00 2024 GMT
        Subject: C=US, ST=New Jersey, L=Princeton, O=Princeton University, OU=PNI, CN=rtcloud.princeton.edu
        Subject Public Key Info:
            Public Key Algorithm: rsaEncryption
                RSA Public-Key: (2048 bit)
                Modulus:
                    00:e4:d6:cb:1c:28:37:4d:1a:b6:88:16:58:a7:32:
                    97:95:4e:0e:38:89:f6:e1:fb:43:e6:20:e9:59:d3:
                    df:b6:af:0d:f8:70:2e:88:b2:f5:84:d3:34:fb:cd:
                    c0:7f:8b:6d:99:f5:f2:fb:09:fb:a0:75:14:33:ea:
                    23:db:35:25:2a:4a:e7:0e:b9:4a:d0:3f:77:c3:43:
                    3f:e7:ef:a2:5a:53:d8:e8:bc:c6:ed:02:76:4a:77:
                    d5:a9:d6:0c:49:83:85:72:c1:ab:34:a5:1d:96:7d:
                    7e:c2:91:c3:fe:a1:63:1f:3b:ae:2a:e3:15:6e:c9:
                    d3:e5:83:e2:ec:9d:12:de:09:3b:c3:59:28:36:da:
                    0d:8a:ff:a8:ff:99:bc:69:8d:c3:1c:fa:08:1f:dd:
                    40:36:3f:3f:2f:bc:e4:21:bc:3f:df:25:a6:b7:0f:
                    df:96:ad:79:c0:87:62:02:7f:3c:c3:a4:6a:74:9b:
                    04:09:ea:13:37:7e:ca:18:75:14:02:c8:47:b3:af:
                    fa:56:12:d9:93:81:0e:4f:29:05:d2:41:6f:59:0e:
                    64:a9:6f:d8:9e:d1:bc:13:80:ab:15:4d:86:49:f6:
                    d0:3d:8b:aa:c6:86:e2:8d:d9:8e:1a:3a:d0:95:b9:
                    69:5c:5d:a5:2e:b8:c6:13:a5:5a:7e:f9:2d:76:38:
                    f9:bd
                Exponent: 65537 (0x10001)
        X509v3 extensions:
            X509v3 Subject Alternative Name: 
                DNS:princeton.edu, DNS:localhost, DNS:localhost, IP Address:172.29.189.152
    Signature Algorithm: sha256WithRSAEncryption
         28:a2:04:ef:c4:40:22:82:46:fa:30:8b:72:27:d1:48:fd:32:
         8d:df:fc:30:2e:15:46:b7:63:f5:2d:20:7a:5f:94:8b:27:5b:
         3a:aa:16:d9:ac:1c:20:90:d2:fa:d7:7b:0d:f9:a8:25:80:bc:
         57:d3:1a:fb:db:11:af:d8:df:62:0e:b1:29:be:c3:0b:ef:d8:
         7a:bd:62:5f:84:73:e0:34:ad:40:e7:33:87:2c:28:d1:13:0a:
         83:37:60:fc:27:3b:ec:b6:7b:ee:3f:7d:20:3f:00:ef:26:2f:
         a1:17:3d:1c:1c:a2:61:96:38:cd:e4:23:f9:93:e0:aa:d6:f1:
         15:22:9f:c3:1d:b8:b1:e3:95:6d:fd:95:bd:2d:cb:72:6e:53:
         ba:45:dd:24:22:de:51:ce:34:ad:af:4f:cc:cb:e3:8d:6e:34:
         ee:af:3c:85:ca:5e:fd:39:3b:55:88:7b:13:48:9a:29:eb:be:
         86:de:98:ea:df:af:94:0a:6d:06:67:ca:be:b3:0e:cb:9f:bd:
         a9:fb:09:98:71:99:19:7f:85:44:80:c8:f3:e7:d5:86:e4:3d:
         be:ff:e7:d5:ea:21:ee:f5:4f:c9:e4:a0:47:a6:e3:5a:be:71:
         00:e2:3f:1b:67:c0:b0:d2:5e:39:41:da:df:98:ff:14:eb:37:
         89:2a:2c:9f
-----BEGIN CERTIFICATE-----
MIIDuzCCAqOgAwIBAgIBATANBgkqhkiG9w0BAQsFADCBgzELMAkGA1UEBhMCVVMx
EzARBgNVBAgMCk5ldyBKZXJzZXkxEjAQBgNVBAcMCVByaW5jZXRvbjEdMBsGA1UE
CgwUUHJpbmNldG9uIFVuaXZlcnNpdHkxDDAKBgNVBAsMA1BOSTEeMBwGA1UEAwwV
cnRjbG91ZC5wcmluY2V0b24uZWR1MB4XDTE5MDEwMTEyMDAwMFoXDTI0MDEwMTEy
MDAwMFowgYMxCzAJBgNVBAYTAlVTMRMwEQYDVQQIDApOZXcgSmVyc2V5MRIwEAYD
VQQHDAlQcmluY2V0b24xHTAbBgNVBAoMFFByaW5jZXRvbiBVbml2ZXJzaXR5MQww
CgYDVQQLDANQTkkxHjAcBgNVBAMMFXJ0Y2xvdWQucHJpbmNldG9uLmVkdTCCASIw
DQYJKoZIhvcNAQEBBQADggEPADCCAQoCggEBAOTWyxwoN00atogWWKcyl5VODjiJ
9uH7Q+Yg6VnT37avDfhwLoiy9YTTNPvNwH+LbZn18vsJ+6B1FDPqI9s1JSpK5w65
StA/d8NDP+fvolpT2Oi8xu0Cdkp31anWDEmDhXLBqzSlHZZ9fsKRw/6hYx87rirj
FW7J0+WD4uydEt4JO8NZKDbaDYr/qP+ZvGmNwxz6CB/dQDY/Py+85CG8P98lprcP
35atecCHYgJ/PMOkanSbBAnqEzd+yhh1FALIR7Ov+lYS2ZOBDk8pBdJBb1kOZKlv
2J7RvBOAqxVNhkn20D2LqsaG4o3Zjho60JW5aVxdpS64xhOlWn75LXY4+b0CAwEA
AaM4MDYwNAYDVR0RBC0wK4INcHJpbmNldG9uLmVkdYIJbG9jYWxob3N0gglsb2Nh
bGhvc3SHBKwdvZgwDQYJKoZIhvcNAQELBQADggEBACiiBO/EQCKCRvowi3In0Uj9
Mo3f/DAuFUa3Y/UtIHpflIsnWzqqFtmsHCCQ0vrXew35qCWAvFfTGvvbEa/Y32IO
sSm+wwvv2Hq9Yl+Ec+A0rUDnM4csKNETCoM3YPwnO+y2e+4/fSA/AO8mL6EXPRwc
omGWOM3kI/mT4KrW8RUin8MduLHjlW39lb0ty3JuU7pF3SQi3lHONK2vT8zL441u
NO6vPIXKXv05O1WIexNIminrvobemOrfr5QKbQZnyr6zDsufvan7CZhxmRl/hUSA
yPPn1YbkPb7/59XqIe71T8nkoEem41q+cQDiPxtnwLDSXjlB2t+Y/xTrN4kqLJ8=
-----END CERTIFICATE-----
