Certificate:
    Data:
        Version: 3 (0x2)
        Serial Number: 1 (0x1)
        Signature Algorithm: sha256WithRSAEncryption
        Issuer: C=US, ST=New Jersey, L=Princeton, O=Princeton University, OU=PNI, CN=rtcloud.princeton.edu
        Validity
            Not Before: Jan  1 12:00:00 2019 GMT
            Not After : Jan  1 12:00:00 2024 GMT
        Subject: C=US, ST=New Jersey, L=Princeton, O=Princeton University, OU=PNI, CN=rtcloud.princeton.edu
        Subject Public Key Info:
            Public Key Algorithm: rsaEncryption
                RSA Public-Key: (2048 bit)
                Modulus:
                    00:d7:25:86:97:6c:d2:47:32:4c:f6:5f:93:f0:5e:
                    84:3b:63:0a:9f:f4:0b:99:f7:cb:31:4a:a3:78:31:
                    00:99:b7:ea:32:64:19:60:4a:b9:ae:69:59:e0:f7:
                    d5:e3:ac:c5:92:52:19:51:3a:8e:fa:76:62:d6:b9:
                    50:60:28:5e:02:75:f0:37:8f:78:41:0c:99:07:30:
                    50:51:32:7d:70:c5:a8:3a:13:64:1d:3a:8a:86:e1:
                    2c:25:de:c3:6f:2e:bf:c2:ba:56:c5:7f:54:0a:1f:
                    46:f3:e6:27:c5:0c:19:1a:07:9c:7f:09:15:64:38:
                    2b:24:df:2f:20:9e:34:46:22:2e:34:e8:b9:c0:fc:
                    b6:30:2b:08:d8:8a:ff:aa:0d:f2:04:e2:70:7f:71:
                    4e:b2:ae:bc:53:14:8c:a8:40:a1:d0:fe:bb:a7:19:
                    d9:71:9c:3f:60:1e:60:c8:03:e0:da:86:d7:ef:71:
                    bd:58:23:21:b8:ba:ab:26:15:eb:a8:98:e2:a0:7f:
                    84:48:a7:e5:40:ce:87:00:af:bb:ff:65:7b:22:4b:
                    5b:5c:12:9f:46:46:de:17:ac:92:01:ac:66:f3:95:
                    79:67:0a:52:c5:db:f7:6d:85:87:9e:d0:a9:76:0d:
                    0c:8b:75:b5:b7:92:42:d1:d0:7c:21:be:bc:30:bd:
                    54:2b
                Exponent: 65537 (0x10001)
        X509v3 extensions:
            X509v3 Subject Alternative Name: 
                DNS:princeton.edu, DNS:localhost, DNS:localhost, IP Address:172.29.189.151
    Signature Algorithm: sha256WithRSAEncryption
         1a:de:d8:d1:be:d8:ee:3e:8e:b9:61:5b:73:0d:14:ed:26:bd:
         0f:db:f3:51:b0:1f:a2:ad:be:0f:0f:14:02:24:0e:24:3e:00:
         8c:f3:5f:a8:1e:5c:69:3a:1f:b8:78:77:2b:67:32:b9:ea:e6:
         ef:76:81:4e:93:e7:f5:5c:a7:17:d7:fa:91:eb:87:e2:0e:aa:
         b4:c1:d3:1c:f6:1f:53:65:e0:ab:7c:bb:1f:cd:41:8b:08:e0:
         f1:2b:dc:40:4b:04:a2:a4:67:fc:30:6f:21:fb:75:f7:3b:53:
         ac:8b:c8:5f:e1:25:1f:64:db:8a:f2:40:ec:55:56:83:ab:5b:
         e1:97:9e:86:50:48:18:a4:2c:0c:fa:02:13:99:e1:88:0a:fe:
         fe:dc:73:ae:fc:e0:42:a8:25:cd:35:2a:70:94:93:8a:07:b3:
         f0:74:59:90:e3:37:de:c7:ba:b0:49:0b:1f:8b:b6:b2:cb:8e:
         35:ef:cd:1a:31:57:92:bf:6b:32:1d:33:37:94:3f:fe:be:86:
         8a:1d:79:ff:9d:4e:05:e0:82:2f:e3:3b:72:76:23:90:a4:6b:
         55:fb:32:84:a1:82:07:65:6c:a3:c0:12:40:bd:62:25:3d:fd:
         14:9e:ee:33:60:3d:be:79:ef:b0:15:73:c5:3c:21:d0:21:08:
         a9:39:a3:bb
-----BEGIN CERTIFICATE-----
MIIDuzCCAqOgAwIBAgIBATANBgkqhkiG9w0BAQsFADCBgzELMAkGA1UEBhMCVVMx
EzARBgNVBAgMCk5ldyBKZXJzZXkxEjAQBgNVBAcMCVByaW5jZXRvbjEdMBsGA1UE
CgwUUHJpbmNldG9uIFVuaXZlcnNpdHkxDDAKBgNVBAsMA1BOSTEeMBwGA1UEAwwV
cnRjbG91ZC5wcmluY2V0b24uZWR1MB4XDTE5MDEwMTEyMDAwMFoXDTI0MDEwMTEy
MDAwMFowgYMxCzAJBgNVBAYTAlVTMRMwEQYDVQQIDApOZXcgSmVyc2V5MRIwEAYD
VQQHDAlQcmluY2V0b24xHTAbBgNVBAoMFFByaW5jZXRvbiBVbml2ZXJzaXR5MQww
CgYDVQQLDANQTkkxHjAcBgNVBAMMFXJ0Y2xvdWQucHJpbmNldG9uLmVkdTCCASIw
DQYJKoZIhvcNAQEBBQADggEPADCCAQoCggEBANclhpds0kcyTPZfk/BehDtjCp/0
C5n3yzFKo3gxAJm36jJkGWBKua5pWeD31eOsxZJSGVE6jvp2Yta5UGAoXgJ18DeP
eEEMmQcwUFEyfXDFqDoTZB06iobhLCXew28uv8K6VsV/VAofRvPmJ8UMGRoHnH8J
FWQ4KyTfLyCeNEYiLjToucD8tjArCNiK/6oN8gTicH9xTrKuvFMUjKhAodD+u6cZ
2XGcP2AeYMgD4NqG1+9xvVgjIbi6qyYV66iY4qB/hEin5UDOhwCvu/9leyJLW1wS
n0ZG3heskgGsZvOVeWcKUsXb922Fh57QqXYNDIt1tbeSQtHQfCG+vDC9VCsCAwEA
AaM4MDYwNAYDVR0RBC0wK4INcHJpbmNldG9uLmVkdYIJbG9jYWxob3N0gglsb2Nh
bGhvc3SHBKwdvZcwDQYJKoZIhvcNAQELBQADggEBABre2NG+2O4+jrlhW3MNFO0m
vQ/b81GwH6Ktvg8PFAIkDiQ+AIzzX6geXGk6H7h4dytnMrnq5u92gU6T5/VcpxfX
+pHrh+IOqrTB0xz2H1Nl4Kt8ux/NQYsI4PEr3EBLBKKkZ/wwbyH7dfc7U6yLyF/h
JR9k24ryQOxVVoOrW+GXnoZQSBikLAz6AhOZ4YgK/v7cc6784EKoJc01KnCUk4oH
s/B0WZDjN97HurBJCx+LtrLLjjXvzRoxV5K/azIdMzeUP/6+hoodef+dTgXggi/j
O3J2I5Cka1X7MoShggdlbKPAEkC9YiU9/RSe7jNgPb5577AVc8U8IdAhCKk5o7s=
-----END CERTIFICATE-----
