Certificate:
    Data:
        Version: 3 (0x2)
        Serial Number: 1 (0x1)
        Signature Algorithm: sha256WithRSAEncryption
        Issuer: C=US, ST=New Jersey, L=Princeton, O=Princeton University, OU=PNI, CN=rtcloud.princeton.edu
        Validity
            Not Before: Jan  1 12:00:00 2019 GMT
            Not After : Jan  1 12:00:00 2024 GMT
        Subject: C=US, ST=New Jersey, L=Princeton, O=Princeton University, OU=PNI, CN=rtcloud.princeton.edu
        Subject Public Key Info:
            Public Key Algorithm: rsaEncryption
                RSA Public-Key: (2048 bit)
                Modulus:
                    00:a4:b7:90:47:a0:0d:c4:c2:7e:ef:9a:c0:d8:89:
                    12:f3:70:c0:62:4e:7a:62:98:08:33:61:de:f8:fb:
                    50:d9:36:63:dc:bb:b6:52:7c:98:bc:ef:a1:8a:71:
                    ca:b7:cc:b2:23:9c:e4:42:eb:dd:59:b4:b6:14:13:
                    59:e7:40:e0:d2:ba:01:be:8d:3b:38:d1:ee:1a:b9:
                    c4:27:0a:e9:d1:19:2e:f6:05:5e:03:1a:b5:9c:62:
                    ab:22:5f:0a:16:7e:0d:30:30:35:4a:30:63:de:28:
                    bc:5c:55:b6:14:3d:6b:ff:4c:1d:eb:54:f9:c7:56:
                    9b:1d:49:88:fe:b2:32:d4:fc:ab:ef:72:b8:01:5a:
                    0e:08:5f:16:c9:e1:a2:e2:c0:9b:a1:22:80:59:ce:
                    cc:98:d1:cf:d2:15:70:0e:41:2c:2b:05:24:f3:cb:
                    ee:cb:63:03:ef:85:ed:f4:8b:a8:3a:a5:99:21:0d:
                    1c:d0:02:5e:d7:84:5e:80:08:e3:38:6b:b9:02:4d:
                    45:0d:75:09:a9:1f:9f:7c:09:12:d3:70:4e:c2:e6:
                    3b:35:b6:f3:36:71:33:74:0c:ac:57:2e:cf:b3:85:
                    ba:c0:b4:06:ac:5c:e3:6e:31:9a:72:6d:bf:e4:5e:
                    f7:88:31:e3:ca:4d:5f:76:33:ca:20:9f:3e:74:40:
                    68:27
                Exponent: 65537 (0x10001)
        X509v3 extensions:
            X509v3 Subject Alternative Name: 
                DNS:princeton.edu, DNS:localhost, DNS:localhost, IP Address:172.29.189.22
    Signature Algorithm: sha256WithRSAEncryption
         28:27:7e:b8:4b:a2:55:ca:5d:9b:b8:9f:b9:6d:ec:e8:c8:c2:
         20:42:03:eb:21:9c:23:d1:aa:be:17:73:e0:8c:4e:04:c9:19:
         6a:33:05:d4:90:a3:6b:6f:19:9c:24:c4:0c:21:43:46:4d:fa:
         b2:6e:56:30:f9:e1:23:a1:bb:61:9a:72:56:56:6d:be:4c:5e:
         55:8e:8e:30:8c:e7:5a:9a:da:ac:04:20:6e:01:fa:06:02:33:
         ea:62:04:0b:1b:7c:7e:c8:b3:3f:5c:21:3e:09:58:d7:11:fd:
         fe:a9:72:50:86:25:10:5a:02:65:c9:7b:b4:f1:64:5f:b6:5e:
         6e:b5:0e:69:d2:6a:ef:51:d5:fb:8b:3f:66:e0:fd:90:fe:38:
         df:d4:6d:c8:2e:b6:43:c6:b6:88:29:15:0b:2b:61:ff:04:83:
         06:26:e7:d5:2b:66:93:db:8c:e4:68:68:c3:9b:f3:30:25:72:
         dd:44:01:4f:5b:69:ee:9e:6a:97:3a:c1:06:ae:b5:1f:e9:bc:
         bd:7f:1c:09:4a:f9:b8:52:a4:6a:55:43:d6:06:60:aa:2b:28:
         9c:9a:8a:64:ec:74:bf:1c:e1:12:08:d7:2b:a6:57:9c:d8:48:
         91:f1:11:52:e6:bf:b0:88:e5:14:c3:7e:5c:43:ef:ad:8a:e9:
         58:1b:9a:20
-----BEGIN CERTIFICATE-----
MIIDuzCCAqOgAwIBAgIBATANBgkqhkiG9w0BAQsFADCBgzELMAkGA1UEBhMCVVMx
EzARBgNVBAgMCk5ldyBKZXJzZXkxEjAQBgNVBAcMCVByaW5jZXRvbjEdMBsGA1UE
CgwUUHJpbmNldG9uIFVuaXZlcnNpdHkxDDAKBgNVBAsMA1BOSTEeMBwGA1UEAwwV
cnRjbG91ZC5wcmluY2V0b24uZWR1MB4XDTE5MDEwMTEyMDAwMFoXDTI0MDEwMTEy
MDAwMFowgYMxCzAJBgNVBAYTAlVTMRMwEQYDVQQIDApOZXcgSmVyc2V5MRIwEAYD
VQQHDAlQcmluY2V0b24xHTAbBgNVBAoMFFByaW5jZXRvbiBVbml2ZXJzaXR5MQww
CgYDVQQLDANQTkkxHjAcBgNVBAMMFXJ0Y2xvdWQucHJpbmNldG9uLmVkdTCCASIw
DQYJKoZIhvcNAQEBBQADggEPADCCAQoCggEBAKS3kEegDcTCfu+awNiJEvNwwGJO
emKYCDNh3vj7UNk2Y9y7tlJ8mLzvoYpxyrfMsiOc5ELr3Vm0thQTWedA4NK6Ab6N
OzjR7hq5xCcK6dEZLvYFXgMatZxiqyJfChZ+DTAwNUowY94ovFxVthQ9a/9MHetU
+cdWmx1JiP6yMtT8q+9yuAFaDghfFsnhouLAm6EigFnOzJjRz9IVcA5BLCsFJPPL
7stjA++F7fSLqDqlmSENHNACXteEXoAI4zhruQJNRQ11Cakfn3wJEtNwTsLmOzW2
8zZxM3QMrFcuz7OFusC0Bqxc424xmnJtv+Re94gx48pNX3YzyiCfPnRAaCcCAwEA
AaM4MDYwNAYDVR0RBC0wK4INcHJpbmNldG9uLmVkdYIJbG9jYWxob3N0gglsb2Nh
bGhvc3SHBKwdvRYwDQYJKoZIhvcNAQELBQADggEBACgnfrhLolXKXZu4n7lt7OjI
wiBCA+shnCPRqr4Xc+CMTgTJGWozBdSQo2tvGZwkxAwhQ0ZN+rJuVjD54SOhu2Ga
clZWbb5MXlWOjjCM51qa2qwEIG4B+gYCM+piBAsbfH7Isz9cIT4JWNcR/f6pclCG
JRBaAmXJe7TxZF+2Xm61DmnSau9R1fuLP2bg/ZD+ON/UbcgutkPGtogpFQsrYf8E
gwYm59UrZpPbjORoaMOb8zAlct1EAU9bae6eapc6wQautR/pvL1/HAlK+bhSpGpV
Q9YGYKorKJyaimTsdL8c4RII1yumV5zYSJHxEVLmv7CI5RTDflxD762K6VgbmiA=
-----END CERTIFICATE-----
