Certificate:
    Data:
        Version: 3 (0x2)
        Serial Number: 1 (0x1)
        Signature Algorithm: sha256WithRSAEncryption
        Issuer: C=US, ST=New Jersey, L=Princeton, O=Princeton University, OU=PNI, CN=rtcloud.princeton.edu
        Validity
            Not Before: Jan  1 12:00:00 2019 GMT
            Not After : Jan  1 12:00:00 2024 GMT
        Subject: C=US, ST=New Jersey, L=Princeton, O=Princeton University, OU=PNI, CN=rtcloud.princeton.edu
        Subject Public Key Info:
            Public Key Algorithm: rsaEncryption
                RSA Public-Key: (2048 bit)
                Modulus:
                    00:cd:e6:e8:a0:2e:6f:f0:be:b6:05:61:08:43:a4:
                    d6:9b:e4:5f:c8:1c:12:cb:68:75:da:d2:1f:b2:44:
                    d4:1f:89:b3:90:d7:50:f8:41:7d:13:0a:34:1f:cb:
                    6d:ec:54:a3:8b:65:41:7b:54:71:5f:fd:f0:eb:0c:
                    c6:3a:3b:fc:44:51:c4:f0:56:65:cf:34:fa:fa:ae:
                    f6:7d:79:4b:7c:57:8e:9e:71:0b:8d:7b:31:d5:b8:
                    e2:fb:e6:5d:c8:88:28:d1:77:3f:79:5c:9b:0e:74:
                    b6:0c:49:9d:02:0f:85:d1:5b:92:49:75:4c:58:55:
                    1a:93:fc:07:58:e3:82:dd:76:25:aa:06:77:b6:9a:
                    0b:4c:9e:b6:c2:8d:1b:3e:e2:b1:37:5b:b2:61:2f:
                    24:74:88:2a:45:8b:f2:5c:04:f4:0c:e1:e3:09:80:
                    66:1a:1d:38:0f:3f:e0:c9:9c:14:0b:22:2b:ec:16:
                    9c:95:d5:04:0c:b4:66:0c:b1:3f:73:d8:7f:32:5d:
                    8c:7c:54:0e:15:49:e2:bf:27:e4:43:ec:83:7c:8e:
                    8c:64:bb:99:33:a7:2b:cd:3e:31:7d:ed:da:f9:4e:
                    7f:2b:ac:a6:5a:63:7c:df:69:32:66:55:86:05:7c:
                    85:d4:41:7e:5a:ac:57:47:e0:3f:88:31:2b:5a:90:
                    74:f9
                Exponent: 65537 (0x10001)
        X509v3 extensions:
            X509v3 Subject Alternative Name: 
                DNS:princeton.edu, DNS:localhost, DNS:localhost, IP Address:172.29.189.22
    Signature Algorithm: sha256WithRSAEncryption
         21:47:6b:47:c7:6d:df:36:f6:3f:ee:9b:66:81:bf:d7:6f:11:
         2b:81:18:ed:39:3f:9c:32:b6:28:a5:64:75:e5:27:8d:ee:10:
         2f:72:07:39:60:bf:1c:74:30:85:d3:26:9f:38:3e:20:ea:23:
         f6:51:19:d4:f3:d7:6c:0d:f4:07:89:82:74:be:6e:56:fd:e3:
         32:41:e6:ab:40:a9:68:fb:c1:22:38:86:d3:17:bc:2b:45:cb:
         63:fa:d6:d0:25:85:82:41:fa:ad:e9:81:6b:09:f0:ad:48:40:
         9c:fb:ed:fd:0c:0e:82:60:c5:19:54:12:ec:e7:d4:2e:dc:17:
         85:74:fe:6f:19:0f:ca:74:8a:6a:ee:fe:24:cd:0f:a9:99:af:
         51:b6:19:e3:0d:f2:50:2d:42:bc:a1:aa:4f:a5:76:05:9b:11:
         7d:5d:5e:30:e1:42:e4:e6:b2:a1:f2:26:0e:3c:ea:8c:4b:53:
         a1:0d:23:8d:01:72:31:cc:50:63:41:30:6e:ee:a6:58:49:dc:
         8c:0a:cb:f2:b5:31:b6:ec:0b:fb:8c:3a:24:5f:3d:cb:a3:fb:
         2b:6b:d3:b3:d0:ed:4d:eb:73:ba:e6:91:c8:cf:db:70:23:2d:
         4f:13:4a:cc:60:19:1f:36:eb:fa:26:2b:5b:8c:40:17:d5:ef:
         d1:04:a0:be
-----BEGIN CERTIFICATE-----
MIIDuzCCAqOgAwIBAgIBATANBgkqhkiG9w0BAQsFADCBgzELMAkGA1UEBhMCVVMx
EzARBgNVBAgMCk5ldyBKZXJzZXkxEjAQBgNVBAcMCVByaW5jZXRvbjEdMBsGA1UE
CgwUUHJpbmNldG9uIFVuaXZlcnNpdHkxDDAKBgNVBAsMA1BOSTEeMBwGA1UEAwwV
cnRjbG91ZC5wcmluY2V0b24uZWR1MB4XDTE5MDEwMTEyMDAwMFoXDTI0MDEwMTEy
MDAwMFowgYMxCzAJBgNVBAYTAlVTMRMwEQYDVQQIDApOZXcgSmVyc2V5MRIwEAYD
VQQHDAlQcmluY2V0b24xHTAbBgNVBAoMFFByaW5jZXRvbiBVbml2ZXJzaXR5MQww
CgYDVQQLDANQTkkxHjAcBgNVBAMMFXJ0Y2xvdWQucHJpbmNldG9uLmVkdTCCASIw
DQYJKoZIhvcNAQEBBQADggEPADCCAQoCggEBAM3m6KAub/C+tgVhCEOk1pvkX8gc
EstoddrSH7JE1B+Js5DXUPhBfRMKNB/LbexUo4tlQXtUcV/98OsMxjo7/ERRxPBW
Zc80+vqu9n15S3xXjp5xC417MdW44vvmXciIKNF3P3lcmw50tgxJnQIPhdFbkkl1
TFhVGpP8B1jjgt12JaoGd7aaC0yetsKNGz7isTdbsmEvJHSIKkWL8lwE9Azh4wmA
ZhodOA8/4MmcFAsiK+wWnJXVBAy0ZgyxP3PYfzJdjHxUDhVJ4r8n5EPsg3yOjGS7
mTOnK80+MX3t2vlOfyusplpjfN9pMmZVhgV8hdRBflqsV0fgP4gxK1qQdPkCAwEA
AaM4MDYwNAYDVR0RBC0wK4INcHJpbmNldG9uLmVkdYIJbG9jYWxob3N0gglsb2Nh
bGhvc3SHBKwdvRYwDQYJKoZIhvcNAQELBQADggEBACFHa0fHbd829j/um2aBv9dv
ESuBGO05P5wytiilZHXlJ43uEC9yBzlgvxx0MIXTJp84PiDqI/ZRGdTz12wN9AeJ
gnS+blb94zJB5qtAqWj7wSI4htMXvCtFy2P61tAlhYJB+q3pgWsJ8K1IQJz77f0M
DoJgxRlUEuzn1C7cF4V0/m8ZD8p0imru/iTND6mZr1G2GeMN8lAtQryhqk+ldgWb
EX1dXjDhQuTmsqHyJg486oxLU6ENI40BcjHMUGNBMG7uplhJ3IwKy/K1MbbsC/uM
OiRfPcuj+ytr07PQ7U3rc7rmkcjP23AjLU8TSsxgGR826/omK1uMQBfV79EEoL4=
-----END CERTIFICATE-----
